; Function Attrs: mustprogress uwtable
define hidden noundef zeroext i1 @_ZNK8facebook6hermes7tracing10SynthTrace28GetOrSetPropertyNativeRecordeqERKNS2_6RecordE(ptr noundef nonnull align 8 dereferenceable(64) %this, ptr noundef nonnull align 8 dereferenceable(16) %that) unnamed_addr #1 align 2 personality ptr @__gxx_personality_v0 {
entry:
  %vtable.i = load ptr, ptr %this, align 8
  %vfn.i = getelementptr inbounds i8, ptr %vtable.i, i64 16
  %0 = load ptr, ptr %vfn.i, align 8
  %call.i = tail call noundef i32 %0(ptr noundef nonnull align 8 dereferenceable(16) %this)
  %vtable2.i = load ptr, ptr %that, align 8
  %vfn3.i = getelementptr inbounds i8, ptr %vtable2.i, i64 16
  %1 = load ptr, ptr %vfn3.i, align 8
  %call4.i = tail call noundef i32 %1(ptr noundef nonnull align 8 dereferenceable(16) %that)
  %cmp.i = icmp eq i32 %call.i, %call4.i
  br i1 %cmp.i, label %dynamic_cast.notnull, label %return

dynamic_cast.notnull:                             ; preds = %entry
  %2 = tail call ptr @__dynamic_cast(ptr nonnull %that, ptr nonnull @_ZTIN8facebook6hermes7tracing10SynthTrace6RecordE, ptr nonnull @_ZTIN8facebook6hermes7tracing10SynthTrace28GetOrSetPropertyNativeRecordE, i64 0) #23
  %hostObjectID_ = getelementptr inbounds i8, ptr %this, i64 16
  %3 = load i64, ptr %hostObjectID_, align 8
  %hostObjectID_2 = getelementptr inbounds i8, ptr %2, i64 16
  %4 = load i64, ptr %hostObjectID_2, align 8
  %cmp = icmp eq i64 %3, %4
  br i1 %cmp, label %land.lhs.true, label %return

land.lhs.true:                                    ; preds = %dynamic_cast.notnull
  %propNameID_ = getelementptr inbounds i8, ptr %this, i64 24
  %5 = load i64, ptr %propNameID_, align 8
  %propNameID_3 = getelementptr inbounds i8, ptr %2, i64 24
  %6 = load i64, ptr %propNameID_3, align 8
  %cmp4 = icmp eq i64 %5, %6
  br i1 %cmp4, label %land.rhs, label %return

land.rhs:                                         ; preds = %land.lhs.true
  %propName_ = getelementptr inbounds i8, ptr %this, i64 32
  %propName_5 = getelementptr inbounds i8, ptr %2, i64 32
  %call.i4 = tail call noundef i64 @_ZNKSt7__cxx1112basic_stringIcSt11char_traitsIcESaIcEE4sizeEv(ptr noundef nonnull align 8 dereferenceable(32) %propName_) #23
  %call1.i = tail call noundef i64 @_ZNKSt7__cxx1112basic_stringIcSt11char_traitsIcESaIcEE4sizeEv(ptr noundef nonnull align 8 dereferenceable(32) %propName_5) #23
  %cmp.i5 = icmp eq i64 %call.i4, %call1.i
  br i1 %cmp.i5, label %land.rhs.i, label %return

land.rhs.i:                                       ; preds = %land.rhs
  %call2.i = tail call noundef ptr @_ZNKSt7__cxx1112basic_stringIcSt11char_traitsIcESaIcEE4dataEv(ptr noundef nonnull align 8 dereferenceable(32) %propName_) #23
  %call3.i = tail call noundef ptr @_ZNKSt7__cxx1112basic_stringIcSt11char_traitsIcESaIcEE4dataEv(ptr noundef nonnull align 8 dereferenceable(32) %propName_5) #23
  %call4.i6 = tail call noundef i64 @_ZNKSt7__cxx1112basic_stringIcSt11char_traitsIcESaIcEE4sizeEv(ptr noundef nonnull align 8 dereferenceable(32) %propName_) #23
  %cmp.i.i = icmp eq i64 %call4.i6, 0
  br i1 %cmp.i.i, label %return, label %if.end.i.i

if.end.i.i:                                       ; preds = %land.rhs.i
  %bcmp.i = tail call i32 @bcmp(ptr %call2.i, ptr %call3.i, i64 %call4.i6)
  %7 = icmp eq i32 %bcmp.i, 0
  br label %return

return:                                           ; preds = %if.end.i.i, %land.rhs.i, %land.rhs, %dynamic_cast.notnull, %land.lhs.true, %entry
  %retval.0 = phi i1 [ false, %entry ], [ false, %land.lhs.true ], [ false, %dynamic_cast.notnull ], [ false, %land.rhs ], [ %7, %if.end.i.i ], [ true, %land.rhs.i ]
  ret i1 %retval.0
}